target datalayout = "e-m:e-p270:32:32-p271:32:32-p272:64:64-i64:64-i128:128-f80:128-n8:16:32:64-S128"
target triple = "x86_64-pc-linux-gnu"

; Function Attrs: nounwind uwtable
define i32 @firstShiftWithOneBit(i64 noundef %0, i32 noundef %1) #0 {
  %3 = alloca i32, align 4
  %4 = alloca i64, align 8
  %5 = alloca i32, align 4
  %6 = alloca i32, align 4
  %7 = alloca i32, align 4
  store i64 %0, ptr %4, align 8, !tbaa !18
  store i32 %1, ptr %5, align 4, !tbaa !8
  call void @llvm.lifetime.start.p0(i64 4, ptr %6) #7
  store i32 0, ptr %6, align 4, !tbaa !8
  %8 = load i32, ptr %5, align 4, !tbaa !8
  %9 = icmp eq i32 %8, 16
  br i1 %9, label %10, label %11

10:                                               ; preds = %2
  store i32 0, ptr %3, align 4
  store i32 1, ptr %7, align 4
  br label %68

11:                                               ; preds = %2
  %12 = load i64, ptr %4, align 8, !tbaa !18
  %13 = icmp uge i64 %12, 4294967296
  br i1 %13, label %14, label %19

14:                                               ; preds = %11
  %15 = load i32, ptr %6, align 4, !tbaa !8
  %16 = add nsw i32 %15, 32
  store i32 %16, ptr %6, align 4, !tbaa !8
  %17 = load i64, ptr %4, align 8, !tbaa !18
  %18 = lshr i64 %17, 32
  store i64 %18, ptr %4, align 8, !tbaa !18
  br label %19

19:                                               ; preds = %14, %11
  %20 = load i32, ptr %5, align 4, !tbaa !8
  %21 = icmp eq i32 %20, 8
  br i1 %21, label %22, label %26

22:                                               ; preds = %19
  %23 = load i32, ptr %6, align 4, !tbaa !8
  %24 = sub nsw i32 64, %23
  %25 = sdiv i32 %24, 32
  store i32 %25, ptr %3, align 4
  store i32 1, ptr %7, align 4
  br label %68

26:                                               ; preds = %19
  %27 = load i64, ptr %4, align 8, !tbaa !18
  %28 = icmp uge i64 %27, 65536
  br i1 %28, label %29, label %34

29:                                               ; preds = %26
  %30 = load i32, ptr %6, align 4, !tbaa !8
  %31 = add nsw i32 %30, 16
  store i32 %31, ptr %6, align 4, !tbaa !8
  %32 = load i64, ptr %4, align 8, !tbaa !18
  %33 = lshr i64 %32, 16
  store i64 %33, ptr %4, align 8, !tbaa !18
  br label %34

34:                                               ; preds = %29, %26
  %35 = load i32, ptr %5, align 4, !tbaa !8
  %36 = icmp eq i32 %35, 4
  br i1 %36, label %37, label %41

37:                                               ; preds = %34
  %38 = load i32, ptr %6, align 4, !tbaa !8
  %39 = sub nsw i32 64, %38
  %40 = sdiv i32 %39, 16
  store i32 %40, ptr %3, align 4
  store i32 1, ptr %7, align 4
  br label %68

41:                                               ; preds = %34
  %42 = load i64, ptr %4, align 8, !tbaa !18
  %43 = icmp uge i64 %42, 256
  br i1 %43, label %44, label %49

44:                                               ; preds = %41
  %45 = load i32, ptr %6, align 4, !tbaa !8
  %46 = add nsw i32 %45, 8
  store i32 %46, ptr %6, align 4, !tbaa !8
  %47 = load i64, ptr %4, align 8, !tbaa !18
  %48 = lshr i64 %47, 8
  store i64 %48, ptr %4, align 8, !tbaa !18
  br label %49

49:                                               ; preds = %44, %41
  %50 = load i32, ptr %5, align 4, !tbaa !8
  %51 = icmp eq i32 %50, 2
  br i1 %51, label %52, label %56

52:                                               ; preds = %49
  %53 = load i32, ptr %6, align 4, !tbaa !8
  %54 = sub nsw i32 64, %53
  %55 = sdiv i32 %54, 8
  store i32 %55, ptr %3, align 4
  store i32 1, ptr %7, align 4
  br label %68

56:                                               ; preds = %49
  %57 = load i64, ptr %4, align 8, !tbaa !18
  %58 = icmp uge i64 %57, 16
  br i1 %58, label %59, label %64

59:                                               ; preds = %56
  %60 = load i32, ptr %6, align 4, !tbaa !8
  %61 = add nsw i32 %60, 4
  store i32 %61, ptr %6, align 4, !tbaa !8
  %62 = load i64, ptr %4, align 8, !tbaa !18
  %63 = lshr i64 %62, 4
  store i64 %63, ptr %4, align 8, !tbaa !18
  br label %64

64:                                               ; preds = %59, %56
  %65 = load i32, ptr %6, align 4, !tbaa !8
  %66 = sub nsw i32 64, %65
  %67 = sdiv i32 %66, 4
  store i32 %67, ptr %3, align 4
  store i32 1, ptr %7, align 4
  br label %68

68:                                               ; preds = %64, %52, %37, %22, %10
  call void @llvm.lifetime.end.p0(i64 4, ptr %6) #7
  %69 = load i32, ptr %3, align 4
  ret i32 %69
}

; Function Attrs: nounwind uwtable
define i32 @minTemp0_fast(ptr noundef %0, i32 noundef %1, i32 noundef %2, ptr noundef %3) #0 {
  %5 = alloca i32, align 4
  %6 = alloca ptr, align 8
  %7 = alloca i32, align 4
  %8 = alloca i32, align 4
  %9 = alloca ptr, align 8
  %10 = alloca i32, align 4
  %11 = alloca i32, align 4
  %12 = alloca i64, align 8
  %13 = alloca i32, align 4
  store ptr %0, ptr %6, align 8, !tbaa !3
  store i32 %1, ptr %7, align 4, !tbaa !8
  store i32 %2, ptr %8, align 4, !tbaa !8
  store ptr %3, ptr %9, align 8, !tbaa !12
  call void @llvm.lifetime.start.p0(i64 4, ptr %10) #7
  call void @llvm.lifetime.start.p0(i64 4, ptr %11) #7
  %14 = load i32, ptr %7, align 4, !tbaa !8
  %15 = shl i32 1, %14
  store i32 %15, ptr %11, align 4, !tbaa !8
  call void @llvm.lifetime.start.p0(i64 8, ptr %12) #7
  %16 = load i32, ptr %8, align 4, !tbaa !8
  %17 = sub nsw i32 %16, 1
  store i32 %17, ptr %10, align 4, !tbaa !8
  br label %18

18:                                               ; preds = %90, %4
  %19 = load i32, ptr %10, align 4, !tbaa !8
  %20 = icmp sge i32 %19, 0
  br i1 %20, label %21, label %93

21:                                               ; preds = %18
  %22 = load ptr, ptr %6, align 8, !tbaa !3
  %23 = load i32, ptr %10, align 4, !tbaa !8
  %24 = sext i32 %23 to i64
  %25 = getelementptr inbounds i64, ptr %22, i64 %24
  %26 = load i64, ptr %25, align 8, !tbaa !18
  %27 = load i32, ptr %7, align 4, !tbaa !8
  %28 = sext i32 %27 to i64
  %29 = getelementptr inbounds [5 x [4 x i64]], ptr @SFmask, i64 0, i64 %28
  %30 = getelementptr inbounds [4 x i64], ptr %29, i64 0, i64 0
  %31 = load i64, ptr %30, align 16, !tbaa !18
  %32 = and i64 %26, %31
  %33 = load ptr, ptr %6, align 8, !tbaa !3
  %34 = load i32, ptr %10, align 4, !tbaa !8
  %35 = sext i32 %34 to i64
  %36 = getelementptr inbounds i64, ptr %33, i64 %35
  %37 = load i64, ptr %36, align 8, !tbaa !18
  %38 = load i32, ptr %7, align 4, !tbaa !8
  %39 = sext i32 %38 to i64
  %40 = getelementptr inbounds [5 x [4 x i64]], ptr @SFmask, i64 0, i64 %39
  %41 = getelementptr inbounds [4 x i64], ptr %40, i64 0, i64 3
  %42 = load i64, ptr %41, align 8, !tbaa !18
  %43 = and i64 %37, %42
  %44 = load i32, ptr %11, align 4, !tbaa !8
  %45 = mul nsw i32 3, %44
  %46 = zext i32 %45 to i64
  %47 = shl i64 %43, %46
  %48 = xor i64 %32, %47
  store i64 %48, ptr %12, align 8, !tbaa !18
  %49 = load i64, ptr %12, align 8, !tbaa !18
  %50 = icmp eq i64 %49, 0
  br i1 %50, label %51, label %52

51:                                               ; preds = %21
  br label %90

52:                                               ; preds = %21
  %53 = load i32, ptr %10, align 4, !tbaa !8
  %54 = mul nsw i32 %53, 100
  %55 = add nsw i32 %54, 20
  %56 = load i64, ptr %12, align 8, !tbaa !18
  %57 = load i32, ptr %11, align 4, !tbaa !8
  %58 = call i32 @firstShiftWithOneBit(i64 noundef %56, i32 noundef %57)
  %59 = sub nsw i32 %55, %58
  %60 = load ptr, ptr %9, align 8, !tbaa !12
  store i32 %59, ptr %60, align 4, !tbaa !8
  %61 = load ptr, ptr %6, align 8, !tbaa !3
  %62 = load i32, ptr %10, align 4, !tbaa !8
  %63 = sext i32 %62 to i64
  %64 = getelementptr inbounds i64, ptr %61, i64 %63
  %65 = load i64, ptr %64, align 8, !tbaa !18
  %66 = load i32, ptr %7, align 4, !tbaa !8
  %67 = sext i32 %66 to i64
  %68 = getelementptr inbounds [5 x [4 x i64]], ptr @SFmask, i64 0, i64 %67
  %69 = getelementptr inbounds [4 x i64], ptr %68, i64 0, i64 0
  %70 = load i64, ptr %69, align 16, !tbaa !18
  %71 = and i64 %65, %70
  %72 = load ptr, ptr %6, align 8, !tbaa !3
  %73 = load i32, ptr %10, align 4, !tbaa !8
  %74 = sext i32 %73 to i64
  %75 = getelementptr inbounds i64, ptr %72, i64 %74
  %76 = load i64, ptr %75, align 8, !tbaa !18
  %77 = load i32, ptr %7, align 4, !tbaa !8
  %78 = sext i32 %77 to i64
  %79 = getelementptr inbounds [5 x [4 x i64]], ptr @SFmask, i64 0, i64 %78
  %80 = getelementptr inbounds [4 x i64], ptr %79, i64 0, i64 3
  %81 = load i64, ptr %80, align 8, !tbaa !18
  %82 = and i64 %76, %81
  %83 = load i32, ptr %11, align 4, !tbaa !8
  %84 = mul nsw i32 3, %83
  %85 = zext i32 %84 to i64
  %86 = shl i64 %82, %85
  %87 = icmp ult i64 %71, %86
  br i1 %87, label %88, label %89

88:                                               ; preds = %52
  store i32 0, ptr %5, align 4
  store i32 1, ptr %13, align 4
  br label %95

89:                                               ; preds = %52
  store i32 3, ptr %5, align 4
  store i32 1, ptr %13, align 4
  br label %95

90:                                               ; preds = %51
  %91 = load i32, ptr %10, align 4, !tbaa !8
  %92 = add nsw i32 %91, -1
  store i32 %92, ptr %10, align 4, !tbaa !8
  br label %18, !llvm.loop !21

93:                                               ; preds = %18
  %94 = load ptr, ptr %9, align 8, !tbaa !12
  store i32 0, ptr %94, align 4, !tbaa !8
  store i32 0, ptr %5, align 4
  store i32 1, ptr %13, align 4
  br label %95

95:                                               ; preds = %93, %89, %88
  call void @llvm.lifetime.end.p0(i64 8, ptr %12) #7
  call void @llvm.lifetime.end.p0(i64 4, ptr %11) #7
  call void @llvm.lifetime.end.p0(i64 4, ptr %10) #7
  %96 = load i32, ptr %5, align 4
  ret i32 %96
}