; Function Attrs: nofree norecurse nosync nounwind memory(argmem: readwrite) uwtable
define range(i32 0, 4) i32 @minTemp0_fast(ptr noundef readonly captures(none) %0, i32 noundef %1, i32 noundef %2, ptr noundef writeonly captures(none) %3) local_unnamed_addr #5 {
  %5 = sext i32 %1 to i64
  %6 = getelementptr inbounds [5 x [4 x i64]], ptr @SFmask, i64 0, i64 %5
  %7 = getelementptr inbounds nuw i8, ptr %6, i64 24
  %8 = shl i32 3, %1
  %9 = zext nneg i32 %8 to i64
  %10 = zext i32 %2 to i64
  br label %11

11:                                               ; preds = %14, %4
  %indvars.iv = phi i64 [ %15, %14 ], [ %10, %4 ]
  %12 = trunc nuw i64 %indvars.iv to i32
  %13 = icmp sgt i32 %12, 0
  br i1 %13, label %14, label %56

14:                                               ; preds = %11
  %15 = add nsw i64 %indvars.iv, -1
  %16 = getelementptr inbounds nuw i64, ptr %0, i64 %15
  %17 = load i64, ptr %16, align 8, !tbaa !11
  %18 = load i64, ptr %6, align 16, !tbaa !11
  %19 = and i64 %18, %17
  %20 = load i64, ptr %7, align 8, !tbaa !11
  %21 = and i64 %20, %17
  %22 = shl i64 %21, %9
  %23 = icmp eq i64 %19, %22
  br i1 %23, label %11, label %24, !llvm.loop !14

24:                                               ; preds = %14
  %25 = trunc i64 %15 to i32
  %26 = xor i64 %22, %19
  %27 = mul nsw i32 %25, 100
  %28 = add nuw nsw i32 %27, 20
  %29 = icmp eq i32 %1, 4
  br i1 %29, label %firstShiftWithOneBit.exit, label %30

30:                                               ; preds = %24
  %31 = icmp ugt i64 %26, 4294967295
  %spec.select28.i = select i1 %31, i32 32, i32 0
  %32 = icmp eq i32 %1, 3
  br i1 %32, label %33, label %36

33:                                               ; preds = %30
  %34 = sub nuw nsw i32 64, %spec.select28.i
  %35 = lshr exact i32 %34, 5
  br label %firstShiftWithOneBit.exit

36:                                               ; preds = %30
  %37 = lshr i64 %26, 32
  %spec.select.i = select i1 %31, i64 %37, i64 %26
  %38 = icmp samesign ugt i64 %spec.select.i, 65535
  %39 = or disjoint i32 %spec.select28.i, 16
  %.1.i = select i1 %38, i32 %39, i32 %spec.select28.i
  %40 = icmp eq i32 %1, 2
  br i1 %40, label %41, label %42

41:                                               ; preds = %36
  %.lhs.trunc.i = sub nuw nsw i32 64, %.1.i
  %.zext.i = lshr exact i32 %.lhs.trunc.i, 4
  br label %firstShiftWithOneBit.exit

42:                                               ; preds = %36
  %43 = lshr i64 %spec.select.i, 16
  %.123.i = select i1 %38, i64 %43, i64 %spec.select.i
  %44 = icmp samesign ugt i64 %.123.i, 255
  %45 = or disjoint i32 %.1.i, 8
  %.2.i = select i1 %44, i32 %45, i32 %.1.i
  %46 = icmp eq i32 %1, 1
  br i1 %46, label %47, label %49

47:                                               ; preds = %42
  %.lhs.trunc30.i = sub nuw nsw i32 64, %.2.i
  %48 = lshr exact i32 %.lhs.trunc30.i, 3
  br label %firstShiftWithOneBit.exit

49:                                               ; preds = %42
  %50 = lshr i64 %.123.i, 8
  %.224.i = select i1 %44, i64 %50, i64 %.123.i
  %51 = icmp samesign ugt i64 %.224.i, 15
  %52 = or disjoint i32 %.2.i, 4
  %spec.select29.i = select i1 %51, i32 %52, i32 %.2.i
  %.lhs.trunc32.i = sub nuw nsw i32 64, %spec.select29.i
  %53 = lshr i32 %.lhs.trunc32.i, 2
  br label %firstShiftWithOneBit.exit

firstShiftWithOneBit.exit:                        ; preds = %24, %33, %41, %47, %49
  %.021.i = phi i32 [ %35, %33 ], [ %.zext.i, %41 ], [ %48, %47 ], [ %53, %49 ], [ 0, %24 ]
  %54 = sub nuw i32 %28, %.021.i
  store i32 %54, ptr %3, align 4, !tbaa !6
  %55 = icmp ult i64 %19, %22
  %. = select i1 %55, i32 0, i32 3
  br label %57

56:                                               ; preds = %11
  store i32 0, ptr %3, align 4, !tbaa !6
  br label %57

57:                                               ; preds = %firstShiftWithOneBit.exit, %56
  %.0 = phi i32 [ 0, %56 ], [ %., %firstShiftWithOneBit.exit ]
  ret i32 %.0
}